target datalayout = "e-m:e-p270:32:32-p271:32:32-p272:64:64-i64:64-i128:128-f80:128-n8:16:32:64-S128"
target triple = "x86_64-pc-linux-gnu"

; Function Attrs: nounwind uwtable
define dso_local i32 @time_independent_strcmp(ptr noundef %0, ptr noundef %1, i32 noundef %2) #0 {
  %4 = alloca ptr, align 8
  %5 = alloca ptr, align 8
  %6 = alloca i32, align 4
  %7 = alloca i32, align 4
  %8 = alloca i32, align 4
  store ptr %0, ptr %4, align 8, !tbaa !5
  store ptr %1, ptr %5, align 8, !tbaa !5
  store i32 %2, ptr %6, align 4, !tbaa !17
  call void @llvm.lifetime.start.p0(i64 4, ptr %7) #14
  store i32 0, ptr %7, align 4, !tbaa !17
  call void @llvm.lifetime.start.p0(i64 4, ptr %8) #14
  store i32 0, ptr %8, align 4, !tbaa !17
  br label %9

9:                                                ; preds = %30, %3
  %10 = load i32, ptr %8, align 4, !tbaa !17
  %11 = load i32, ptr %6, align 4, !tbaa !17
  %12 = icmp slt i32 %10, %11
  br i1 %12, label %14, label %13

13:                                               ; preds = %9
  call void @llvm.lifetime.end.p0(i64 4, ptr %8) #14
  br label %33

14:                                               ; preds = %9
  %15 = load ptr, ptr %4, align 8, !tbaa !5
  %16 = load i32, ptr %8, align 4, !tbaa !17
  %17 = sext i32 %16 to i64
  %18 = getelementptr inbounds i8, ptr %15, i64 %17
  %19 = load i8, ptr %18, align 1, !tbaa !22
  %20 = sext i8 %19 to i32
  %21 = load ptr, ptr %5, align 8, !tbaa !5
  %22 = load i32, ptr %8, align 4, !tbaa !17
  %23 = sext i32 %22 to i64
  %24 = getelementptr inbounds i8, ptr %21, i64 %23
  %25 = load i8, ptr %24, align 1, !tbaa !22
  %26 = sext i8 %25 to i32
  %27 = xor i32 %20, %26
  %28 = load i32, ptr %7, align 4, !tbaa !17
  %29 = or i32 %28, %27
  store i32 %29, ptr %7, align 4, !tbaa !17
  br label %30

30:                                               ; preds = %14
  %31 = load i32, ptr %8, align 4, !tbaa !17
  %32 = add nsw i32 %31, 1
  store i32 %32, ptr %8, align 4, !tbaa !17
  br label %9, !llvm.loop !23

33:                                               ; preds = %13
  %34 = load i32, ptr %7, align 4, !tbaa !17
  call void @llvm.lifetime.end.p0(i64 4, ptr %7) #14
  ret i32 %34
}